	.file	"endian.c"
	.text
	.globl	getBytes
	.type	getBytes, @function
getBytes:
.LFB2:
	.cfi_startproc
	pushq	%rbp
	.cfi_def_cfa_offset 16
	.cfi_offset 6, -16
	movq	%rsp, %rbp
	.cfi_def_cfa_register 6
	subq	$32, %rsp
	movq	%rdi, -24(%rbp)
	movq	%rsi, -32(%rbp)
	movq	-32(%rbp), %rax
	movq	%rax, %rdi
	call	malloc
	movq	%rax, -8(%rbp)
	movl	$0, -12(%rbp)
	jmp	.L2
.L3:
	movl	-12(%rbp), %eax
	movslq	%eax, %rdx
	movq	-8(%rbp), %rax
	leaq	(%rdx,%rax), %rcx
	movq	-24(%rbp), %rax
	leaq	1(%rax), %rdx
	movq	%rdx, -24(%rbp)
	movzbl	(%rax), %eax
	movb	%al, (%rcx)
	addl	$1, -12(%rbp)
.L2:
	movl	-12(%rbp), %eax
	cltq
	cmpq	-32(%rbp), %rax
	jb	.L3
	movq	-8(%rbp), %rax
	leave
	.cfi_def_cfa 7, 8
	ret
	.cfi_endproc
.LFE2:
	.size	getBytes, .-getBytes
	.section	.rodata
.LC0:
	.string	"0x%02X "
.LC1:
	.string	"0x%02X\n"
	.text
	.globl	showBytes
	.type	showBytes, @function
showBytes:
.LFB3:
	.cfi_startproc
	pushq	%rbp
	.cfi_def_cfa_offset 16
	.cfi_offset 6, -16
	movq	%rsp, %rbp
	.cfi_def_cfa_register 6
	subq	$32, %rsp
	movq	%rdi, -24(%rbp)
	movq	%rsi, -32(%rbp)
	movl	$0, -4(%rbp)
	jmp	.L6
.L7:
	movl	-4(%rbp), %eax
	movslq	%eax, %rdx
	movq	-24(%rbp), %rax
	addq	%rdx, %rax
	movzbl	(%rax), %eax
	movzbl	%al, %eax
	movl	%eax, %esi
	movl	$.LC0, %edi
	movl	$0, %eax
	call	printf
	addl	$1, -4(%rbp)
.L6:
	movl	-4(%rbp), %eax
	cltq
	movq	-32(%rbp), %rdx
	subq	$1, %rdx
	cmpq	%rdx, %rax
	jb	.L7
	movq	-32(%rbp), %rax
	leaq	-1(%rax), %rdx
	movq	-24(%rbp), %rax
	addq	%rdx, %rax
	movzbl	(%rax), %eax
	movzbl	%al, %eax
	movl	%eax, %esi
	movl	$.LC1, %edi
	movl	$0, %eax
	call	printf
	nop
	leave
	.cfi_def_cfa 7, 8
	ret
	.cfi_endproc
.LFE3:
	.size	showBytes, .-showBytes
	.section	.rodata
.LC2:
	.string	"%d(0x%08X) : "
.LC3:
	.string	"abcdef"
	.text
	.globl	main
	.type	main, @function
main:
.LFB4:
	.cfi_startproc
	pushq	%rbp
	.cfi_def_cfa_offset 16
	.cfi_offset 6, -16
	movq	%rsp, %rbp
	.cfi_def_cfa_register 6
	subq	$48, %rsp
	movq	%fs:40, %rax
	movq	%rax, -8(%rbp)
	xorl	%eax, %eax
	movl	$-2023406815, -36(%rbp)
	leaq	-36(%rbp), %rax
	movl	$4, %esi
	movq	%rax, %rdi
	call	getBytes
	movq	%rax, -32(%rbp)
	movl	-36(%rbp), %edx
	movl	-36(%rbp), %eax
	movl	%eax, %esi
	movl	$.LC2, %edi
	movl	$0, %eax
	call	printf
	movq	-32(%rbp), %rax
	movl	$4, %esi
	movq	%rax, %rdi
	call	showBytes
	movq	$.LC3, -24(%rbp)
	movq	-24(%rbp), %rax
	movq	%rax, %rdi
	call	strlen
	movq	%rax, %rdx
	movq	-24(%rbp), %rax
	movq	%rdx, %rsi
	movq	%rax, %rdi
	call	getBytes
	movq	%rax, -16(%rbp)
	movq	-24(%rbp), %rax
	movq	%rax, %rdi
	call	strlen
	movq	%rax, %rdx
	movq	-16(%rbp), %rax
	movq	%rdx, %rsi
	movq	%rax, %rdi
	call	showBytes
	movl	$0, %eax
	movq	-8(%rbp), %rcx
	xorq	%fs:40, %rcx
	je	.L10
	call	__stack_chk_fail
.L10:
	leave
	.cfi_def_cfa 7, 8
	ret
	.cfi_endproc
.LFE4:
	.size	main, .-main
	.ident	"GCC: (Ubuntu 5.4.0-6ubuntu1~16.04.1) 5.4.0 20160609"
	.section	.note.GNU-stack,"",@progbits
